; ModuleID = '20/108.c'
source_filename = "20/108.c"
target datalayout = "e-m:e-p270:32:32-p271:32:32-p272:64:64-i64:64-f80:128-n8:16:32:64-S128"
target triple = "x86_64-pc-linux-gnu"

@.str = private unnamed_addr constant [5 x i8] c"%s%s\00", align 1
@.str.1 = private unnamed_addr constant [3 x i8] c"%c\00", align 1
@.str.2 = private unnamed_addr constant [2 x i8] c"\0A\00", align 1

; Function Attrs: noinline nounwind uwtable
define dso_local void @main() #0 {
  %1 = alloca i32, align 4
  %2 = alloca i32, align 4
  %3 = alloca i32, align 4
  %4 = alloca i32, align 4
  %5 = alloca i32, align 4
  %6 = alloca i32, align 4
  %7 = alloca [100 x [50 x i8]], align 16
  %8 = alloca [100 x [3 x i8]], align 16
  store i32 0, i32* %1, align 4
  br label %9

9:                                                ; preds = %20, %0
  %10 = load i32, i32* %1, align 4
  %11 = sext i32 %10 to i64
  %12 = getelementptr inbounds [100 x [50 x i8]], [100 x [50 x i8]]* %7, i64 0, i64 %11
  %13 = getelementptr inbounds [50 x i8], [50 x i8]* %12, i64 0, i64 0
  %14 = load i32, i32* %1, align 4
  %15 = sext i32 %14 to i64
  %16 = getelementptr inbounds [100 x [3 x i8]], [100 x [3 x i8]]* %8, i64 0, i64 %15
  %17 = getelementptr inbounds [3 x i8], [3 x i8]* %16, i64 0, i64 0
  %18 = call i32 (i8*, ...) @__isoc99_scanf(i8* getelementptr inbounds ([5 x i8], [5 x i8]* @.str, i64 0, i64 0), i8* %13, i8* %17)
  %19 = icmp ne i32 %18, -1
  br i1 %19, label %20, label %23

20:                                               ; preds = %9
  %21 = load i32, i32* %1, align 4
  %22 = add nsw i32 %21, 1
  store i32 %22, i32* %1, align 4
  br label %9

23:                                               ; preds = %9
  %24 = load i32, i32* %1, align 4
  store i32 %24, i32* %4, align 4
  store i32 0, i32* %1, align 4
  br label %25

25:                                               ; preds = %128, %23
  %26 = load i32, i32* %1, align 4
  %27 = load i32, i32* %4, align 4
  %28 = icmp slt i32 %26, %27
  br i1 %28, label %29, label %131

29:                                               ; preds = %25
  store i32 0, i32* %3, align 4
  %30 = load i32, i32* %1, align 4
  %31 = sext i32 %30 to i64
  %32 = getelementptr inbounds [100 x [50 x i8]], [100 x [50 x i8]]* %7, i64 0, i64 %31
  %33 = getelementptr inbounds [50 x i8], [50 x i8]* %32, i64 0, i64 0
  %34 = call i64 @strlen(i8* %33) #3
  %35 = trunc i64 %34 to i32
  store i32 %35, i32* %5, align 4
  %36 = load i32, i32* %1, align 4
  %37 = sext i32 %36 to i64
  %38 = getelementptr inbounds [100 x [50 x i8]], [100 x [50 x i8]]* %7, i64 0, i64 %37
  %39 = getelementptr inbounds [50 x i8], [50 x i8]* %38, i64 0, i64 0
  %40 = load i8, i8* %39, align 2
  %41 = sext i8 %40 to i32
  store i32 %41, i32* %6, align 4
  store i32 1, i32* %2, align 4
  br label %42

42:                                               ; preds = %68, %29
  %43 = load i32, i32* %2, align 4
  %44 = load i32, i32* %5, align 4
  %45 = icmp slt i32 %43, %44
  br i1 %45, label %46, label %71

46:                                               ; preds = %42
  %47 = load i32, i32* %6, align 4
  %48 = load i32, i32* %1, align 4
  %49 = sext i32 %48 to i64
  %50 = getelementptr inbounds [100 x [50 x i8]], [100 x [50 x i8]]* %7, i64 0, i64 %49
  %51 = load i32, i32* %2, align 4
  %52 = sext i32 %51 to i64
  %53 = getelementptr inbounds [50 x i8], [50 x i8]* %50, i64 0, i64 %52
  %54 = load i8, i8* %53, align 1
  %55 = sext i8 %54 to i32
  %56 = icmp slt i32 %47, %55
  br i1 %56, label %57, label %67

57:                                               ; preds = %46
  %58 = load i32, i32* %2, align 4
  store i32 %58, i32* %3, align 4
  %59 = load i32, i32* %1, align 4
  %60 = sext i32 %59 to i64
  %61 = getelementptr inbounds [100 x [50 x i8]], [100 x [50 x i8]]* %7, i64 0, i64 %60
  %62 = load i32, i32* %2, align 4
  %63 = sext i32 %62 to i64
  %64 = getelementptr inbounds [50 x i8], [50 x i8]* %61, i64 0, i64 %63
  %65 = load i8, i8* %64, align 1
  %66 = sext i8 %65 to i32
  store i32 %66, i32* %6, align 4
  br label %67

67:                                               ; preds = %57, %46
  br label %68

68:                                               ; preds = %67
  %69 = load i32, i32* %2, align 4
  %70 = add nsw i32 %69, 1
  store i32 %70, i32* %2, align 4
  br label %42

71:                                               ; preds = %42
  store i32 0, i32* %2, align 4
  br label %72

72:                                               ; preds = %86, %71
  %73 = load i32, i32* %2, align 4
  %74 = load i32, i32* %3, align 4
  %75 = icmp sle i32 %73, %74
  br i1 %75, label %76, label %89

76:                                               ; preds = %72
  %77 = load i32, i32* %1, align 4
  %78 = sext i32 %77 to i64
  %79 = getelementptr inbounds [100 x [50 x i8]], [100 x [50 x i8]]* %7, i64 0, i64 %78
  %80 = load i32, i32* %2, align 4
  %81 = sext i32 %80 to i64
  %82 = getelementptr inbounds [50 x i8], [50 x i8]* %79, i64 0, i64 %81
  %83 = load i8, i8* %82, align 1
  %84 = sext i8 %83 to i32
  %85 = call i32 (i8*, ...) @printf(i8* getelementptr inbounds ([3 x i8], [3 x i8]* @.str.1, i64 0, i64 0), i32 %84)
  br label %86

86:                                               ; preds = %76
  %87 = load i32, i32* %2, align 4
  %88 = add nsw i32 %87, 1
  store i32 %88, i32* %2, align 4
  br label %72

89:                                               ; preds = %72
  store i32 0, i32* %2, align 4
  br label %90

90:                                               ; preds = %103, %89
  %91 = load i32, i32* %2, align 4
  %92 = icmp slt i32 %91, 3
  br i1 %92, label %93, label %106

93:                                               ; preds = %90
  %94 = load i32, i32* %1, align 4
  %95 = sext i32 %94 to i64
  %96 = getelementptr inbounds [100 x [3 x i8]], [100 x [3 x i8]]* %8, i64 0, i64 %95
  %97 = load i32, i32* %2, align 4
  %98 = sext i32 %97 to i64
  %99 = getelementptr inbounds [3 x i8], [3 x i8]* %96, i64 0, i64 %98
  %100 = load i8, i8* %99, align 1
  %101 = sext i8 %100 to i32
  %102 = call i32 (i8*, ...) @printf(i8* getelementptr inbounds ([3 x i8], [3 x i8]* @.str.1, i64 0, i64 0), i32 %101)
  br label %103

103:                                              ; preds = %93
  %104 = load i32, i32* %2, align 4
  %105 = add nsw i32 %104, 1
  store i32 %105, i32* %2, align 4
  br label %90

106:                                              ; preds = %90
  %107 = load i32, i32* %3, align 4
  %108 = add nsw i32 %107, 1
  store i32 %108, i32* %2, align 4
  br label %109

109:                                              ; preds = %123, %106
  %110 = load i32, i32* %2, align 4
  %111 = load i32, i32* %5, align 4
  %112 = icmp slt i32 %110, %111
  br i1 %112, label %113, label %126

113:                                              ; preds = %109
  %114 = load i32, i32* %1, align 4
  %115 = sext i32 %114 to i64
  %116 = getelementptr inbounds [100 x [50 x i8]], [100 x [50 x i8]]* %7, i64 0, i64 %115
  %117 = load i32, i32* %2, align 4
  %118 = sext i32 %117 to i64
  %119 = getelementptr inbounds [50 x i8], [50 x i8]* %116, i64 0, i64 %118
  %120 = load i8, i8* %119, align 1
  %121 = sext i8 %120 to i32
  %122 = call i32 (i8*, ...) @printf(i8* getelementptr inbounds ([3 x i8], [3 x i8]* @.str.1, i64 0, i64 0), i32 %121)
  br label %123

123:                                              ; preds = %113
  %124 = load i32, i32* %2, align 4
  %125 = add nsw i32 %124, 1
  store i32 %125, i32* %2, align 4
  br label %109

126:                                              ; preds = %109
  %127 = call i32 (i8*, ...) @printf(i8* getelementptr inbounds ([2 x i8], [2 x i8]* @.str.2, i64 0, i64 0))
  br label %128

128:                                              ; preds = %126
  %129 = load i32, i32* %1, align 4
  %130 = add nsw i32 %129, 1
  store i32 %130, i32* %1, align 4
  br label %25

131:                                              ; preds = %25
  ret void
}

declare dso_local i32 @__isoc99_scanf(i8*, ...) #1

; Function Attrs: nounwind readonly
declare dso_local i64 @strlen(i8*) #2

declare dso_local i32 @printf(i8*, ...) #1


!llvm.module.flags = !{!0}
!llvm.ident = !{!1}

!0 = !{i32 1, !"wchar_size", i32 4}
!1 = !{!"clang version 10.0.0-4ubuntu1 "}
